; Function Attrs: nounwind uwtable
define internal ptr @_elementtree_Element_set(ptr noundef captures(none) %0, ptr noundef readonly captures(none) %1, i64 noundef %2) #0 {
  %or.cond = icmp eq i64 %2, 2
  br i1 %or.cond, label %6, label %4

4:                                                ; preds = %3
  %5 = tail call i32 @_PyArg_CheckPositional(ptr noundef nonnull @.str.60, i64 noundef %2, i64 noundef 2, i64 noundef 2) #12
  %.not = icmp eq i32 %5, 0
  br i1 %.not, label %_elementtree_Element_set_impl.exit, label %6

6:                                                ; preds = %3, %4
  %7 = load ptr, ptr %1, align 8, !tbaa !20
  %8 = getelementptr i8, ptr %1, i64 8
  %9 = load ptr, ptr %8, align 8, !tbaa !20
  %10 = getelementptr inbounds nuw i8, ptr %0, i64 40
  %11 = load ptr, ptr %10, align 8, !tbaa !37
  %.not.i = icmp eq ptr %11, null
  br i1 %.not.i, label %12, label %18

12:                                               ; preds = %6
  %13 = tail call ptr @PyMem_Malloc(i64 noundef 64) #12
  store ptr %13, ptr %10, align 8, !tbaa !37
  %.not.i.i = icmp eq ptr %13, null
  br i1 %.not.i.i, label %create_extra.exit.thread.i, label %.thread.i

create_extra.exit.thread.i:                       ; preds = %12
  %14 = tail call ptr @PyErr_NoMemory() #12
  br label %_elementtree_Element_set_impl.exit

.thread.i:                                        ; preds = %12
  %15 = getelementptr inbounds nuw i8, ptr %13, i64 16
  tail call void @llvm.memset.p0.i64(ptr noundef nonnull align 8 dereferenceable(16) %13, i8 0, i64 16, i1 false)
  store i64 4, ptr %15, align 8, !tbaa !53
  %16 = getelementptr inbounds nuw i8, ptr %13, i64 32
  %17 = getelementptr inbounds nuw i8, ptr %13, i64 24
  store ptr %16, ptr %17, align 8, !tbaa !39
  br label %element_get_attrib.exit.i

18:                                               ; preds = %6
  %.pre.i = load ptr, ptr %11, align 8, !tbaa !52
  %.not.i10.i = icmp eq ptr %.pre.i, null
  br i1 %.not.i10.i, label %element_get_attrib.exit.i, label %element_get_attrib.exit.thread.i

element_get_attrib.exit.i:                        ; preds = %18, %.thread.i
  %19 = tail call ptr @PyDict_New() #12
  %20 = load ptr, ptr %10, align 8, !tbaa !37
  store ptr %19, ptr %20, align 8, !tbaa !52
  %.not9.i = icmp eq ptr %19, null
  br i1 %.not9.i, label %_elementtree_Element_set_impl.exit, label %element_get_attrib.exit.thread.i

element_get_attrib.exit.thread.i:                 ; preds = %element_get_attrib.exit.i, %18
  %.0.i1115.i = phi ptr [ %19, %element_get_attrib.exit.i ], [ %.pre.i, %18 ]
  %21 = tail call i32 @PyDict_SetItem(ptr noundef nonnull %.0.i1115.i, ptr noundef %7, ptr noundef %9) #12
  %22 = icmp slt i32 %21, 0
  %._Py_NoneStruct.i = select i1 %22, ptr null, ptr @_Py_NoneStruct
  br label %_elementtree_Element_set_impl.exit

_elementtree_Element_set_impl.exit:               ; preds = %element_get_attrib.exit.thread.i, %element_get_attrib.exit.i, %create_extra.exit.thread.i, %4
  %.0 = phi ptr [ null, %4 ], [ null, %element_get_attrib.exit.i ], [ %._Py_NoneStruct.i, %element_get_attrib.exit.thread.i ], [ null, %create_extra.exit.thread.i ]
  ret ptr %.0
}